; Function Attrs: null_pointer_is_valid sspstrong uwtable
define internal i32 @dissect_ldap_Mechanism(i1 noundef zeroext %0, ptr noundef %1, i32 noundef %2, ptr noundef %3, ptr noundef %4, i32 noundef %5) #0 {
  %7 = alloca ptr, align 8
  call void @llvm.lifetime.start.p0(i64 8, ptr nonnull %7) #14
  %8 = call i32 @dissect_ber_octet_string(i1 noundef zeroext %0, ptr noundef %3, ptr noundef %4, ptr noundef %1, i32 noundef %2, i32 noundef %5, ptr noundef nonnull %7)
  %9 = getelementptr inbounds nuw i8, ptr %3, i64 48
  %10 = load ptr, ptr %9, align 8
  store i32 3, ptr %10, align 8
  %11 = load ptr, ptr %7, align 8
  %.not = icmp eq ptr %11, null
  br i1 %.not, label %30, label %12

12:                                               ; preds = %6
  %13 = getelementptr inbounds nuw i8, ptr %3, i64 16
  %14 = load ptr, ptr %13, align 8
  %15 = getelementptr inbounds nuw i8, ptr %14, i64 80
  %16 = load ptr, ptr %15, align 8
  %17 = getelementptr inbounds nuw i8, ptr %16, i64 57
  %18 = load i16, ptr %17, align 1
  %19 = and i16 %18, 8
  %.not16 = icmp eq i16 %19, 0
  br i1 %.not16, label %20, label %30

20:                                               ; preds = %12
  %21 = call ptr @wmem_file_scope()
  %22 = load ptr, ptr %7, align 8
  %23 = call i32 @tvb_reported_length_remaining(ptr noundef %22, i32 noundef 0)
  %24 = call ptr @tvb_get_string_enc(ptr noundef %21, ptr noundef %22, i32 noundef 0, i32 noundef %23, i32 noundef 2)
  %25 = getelementptr inbounds nuw i8, ptr %10, i64 16
  store i32 0, ptr %25, align 8
  %.not17 = icmp eq ptr %24, null
  br i1 %.not17, label %30, label %26

26:                                               ; preds = %20
  %27 = call ptr @wmem_file_scope()
  %28 = getelementptr inbounds nuw i8, ptr %10, i64 8
  %29 = load ptr, ptr %28, align 8
  call void @wmem_free(ptr noundef %27, ptr noundef %29)
  store ptr %24, ptr %28, align 8
  br label %30

30:                                               ; preds = %12, %26, %20, %6
  call void @llvm.lifetime.end.p0(i64 8, ptr nonnull %7) #14
  ret i32 %8
}